target datalayout = "e-m:e-p270:32:32-p271:32:32-p272:64:64-i64:64-i128:128-f80:128-n8:16:32:64-S128"
target triple = "x86_64-pc-linux-gnu"

@libctx = internal global ptr null, align 8
@.str.14 = private unnamed_addr constant [29 x i8] c"../openssl/test/sslapitest.c\00", align 1
@cert = internal global ptr null, align 8
@privkey = internal global ptr null, align 8
@.str.157 = private unnamed_addr constant [67 x i8] c"create_ssl_objects(sctx, cctx, &serverssl, &clientssl, NULL, NULL)\00", align 1
@.str.158 = private unnamed_addr constant [60 x i8] c"create_ssl_connection(serverssl, clientssl, SSL_ERROR_NONE)\00", align 1
@.str.610 = private unnamed_addr constant [118 x i8] c"create_ssl_ctx_pair(libctx, TLS_server_method(), TLS_client_method(), TLS1_3_VERSION, 0, &sctx, &cctx, cert, privkey)\00", align 1
@test_key_update.mess = internal global ptr @.str.707, align 8
@.str.708 = private unnamed_addr constant [94 x i8] c"SSL_key_update(clientssl, (j == 0) ? SSL_KEY_UPDATE_NOT_REQUESTED : SSL_KEY_UPDATE_REQUESTED)\00", align 1
@.str.709 = private unnamed_addr constant [28 x i8] c"SSL_do_handshake(clientssl)\00", align 1
@.str.710 = private unnamed_addr constant [41 x i8] c"SSL_write(clientssl, mess, strlen(mess))\00", align 1
@.str.711 = private unnamed_addr constant [13 x i8] c"strlen(mess)\00", align 1
@.str.712 = private unnamed_addr constant [38 x i8] c"SSL_read(serverssl, buf, sizeof(buf))\00", align 1
@.str.713 = private unnamed_addr constant [41 x i8] c"SSL_write(serverssl, mess, strlen(mess))\00", align 1
@.str.714 = private unnamed_addr constant [38 x i8] c"SSL_read(clientssl, buf, sizeof(buf))\00", align 1

; Function Attrs: nounwind uwtable
define internal i32 @test_key_update() #0 {
  %1 = alloca ptr, align 8
  %2 = alloca ptr, align 8
  %3 = alloca ptr, align 8
  %4 = alloca ptr, align 8
  %5 = alloca i32, align 4
  %6 = alloca i32, align 4
  %7 = alloca i32, align 4
  %8 = alloca [20 x i8], align 16
  call void @llvm.lifetime.start.p0(i64 8, ptr %1) #9
  store ptr null, ptr %1, align 8, !tbaa !19
  call void @llvm.lifetime.start.p0(i64 8, ptr %2) #9
  store ptr null, ptr %2, align 8, !tbaa !19
  call void @llvm.lifetime.start.p0(i64 8, ptr %3) #9
  store ptr null, ptr %3, align 8, !tbaa !21
  call void @llvm.lifetime.start.p0(i64 8, ptr %4) #9
  store ptr null, ptr %4, align 8, !tbaa !21
  call void @llvm.lifetime.start.p0(i64 4, ptr %5) #9
  store i32 0, ptr %5, align 4, !tbaa !13
  call void @llvm.lifetime.start.p0(i64 4, ptr %6) #9
  call void @llvm.lifetime.start.p0(i64 4, ptr %7) #9
  call void @llvm.lifetime.start.p0(i64 20, ptr %8) #9
  %9 = load ptr, ptr @libctx, align 8, !tbaa !4
  %10 = call ptr @TLS_server_method()
  %11 = call ptr @TLS_client_method()
  %12 = load ptr, ptr @cert, align 8, !tbaa !11
  %13 = load ptr, ptr @privkey, align 8, !tbaa !11
  %14 = call i32 @create_ssl_ctx_pair(ptr noundef %9, ptr noundef %10, ptr noundef %11, i32 noundef 772, i32 noundef 0, ptr noundef %2, ptr noundef %1, ptr noundef %12, ptr noundef %13)
  %15 = icmp ne i32 %14, 0
  %16 = zext i1 %15 to i32
  %17 = call i32 @test_true(ptr noundef @.str.14, i32 noundef 6835, ptr noundef @.str.610, i32 noundef %16)
  %18 = icmp ne i32 %17, 0
  br i1 %18, label %19, label %35

19:                                               ; preds = %0
  %20 = load ptr, ptr %2, align 8, !tbaa !19
  %21 = load ptr, ptr %1, align 8, !tbaa !19
  %22 = call i32 @create_ssl_objects(ptr noundef %20, ptr noundef %21, ptr noundef %4, ptr noundef %3, ptr noundef null, ptr noundef null)
  %23 = icmp ne i32 %22, 0
  %24 = zext i1 %23 to i32
  %25 = call i32 @test_true(ptr noundef @.str.14, i32 noundef 6837, ptr noundef @.str.157, i32 noundef %24)
  %26 = icmp ne i32 %25, 0
  br i1 %26, label %27, label %35

27:                                               ; preds = %19
  %28 = load ptr, ptr %4, align 8, !tbaa !21
  %29 = load ptr, ptr %3, align 8, !tbaa !21
  %30 = call i32 @create_ssl_connection(ptr noundef %28, ptr noundef %29, i32 noundef 0)
  %31 = icmp ne i32 %30, 0
  %32 = zext i1 %31 to i32
  %33 = call i32 @test_true(ptr noundef @.str.14, i32 noundef 6839, ptr noundef @.str.158, i32 noundef %32)
  %34 = icmp ne i32 %33, 0
  br i1 %34, label %36, label %35

35:                                               ; preds = %27, %19, %0
  br label %115

36:                                               ; preds = %27
  store i32 0, ptr %7, align 4, !tbaa !13
  br label %37

37:                                               ; preds = %111, %36
  %38 = load i32, ptr %7, align 4, !tbaa !13
  %39 = icmp slt i32 %38, 2
  br i1 %39, label %40, label %114

40:                                               ; preds = %37
  store i32 0, ptr %6, align 4, !tbaa !13
  br label %41

41:                                               ; preds = %63, %40
  %42 = load i32, ptr %6, align 4, !tbaa !13
  %43 = icmp slt i32 %42, 40
  br i1 %43, label %44, label %66

44:                                               ; preds = %41
  %45 = load ptr, ptr %3, align 8, !tbaa !21
  %46 = load i32, ptr %7, align 4, !tbaa !13
  %47 = icmp eq i32 %46, 0
  %48 = select i1 %47, i32 0, i32 1
  %49 = call i32 @SSL_key_update(ptr noundef %45, i32 noundef %48)
  %50 = icmp ne i32 %49, 0
  %51 = zext i1 %50 to i32
  %52 = call i32 @test_true(ptr noundef @.str.14, i32 noundef 6848, ptr noundef @.str.708, i32 noundef %51)
  %53 = icmp ne i32 %52, 0
  br i1 %53, label %54, label %61

54:                                               ; preds = %44
  %55 = load ptr, ptr %3, align 8, !tbaa !21
  %56 = call i32 @SSL_do_handshake(ptr noundef %55)
  %57 = icmp ne i32 %56, 0
  %58 = zext i1 %57 to i32
  %59 = call i32 @test_true(ptr noundef @.str.14, i32 noundef 6849, ptr noundef @.str.709, i32 noundef %58)
  %60 = icmp ne i32 %59, 0
  br i1 %60, label %62, label %61

61:                                               ; preds = %54, %44
  br label %115

62:                                               ; preds = %54
  br label %63

63:                                               ; preds = %62
  %64 = load i32, ptr %6, align 4, !tbaa !13
  %65 = add nsw i32 %64, 1
  store i32 %65, ptr %6, align 4, !tbaa !13
  br label %41, !llvm.loop !81

66:                                               ; preds = %41
  %67 = load ptr, ptr %3, align 8, !tbaa !21
  %68 = load ptr, ptr @test_key_update.mess, align 8, !tbaa !11
  %69 = load ptr, ptr @test_key_update.mess, align 8, !tbaa !11
  %70 = call i64 @strlen(ptr noundef %69) #10
  %71 = trunc i64 %70 to i32
  %72 = call i32 @SSL_write(ptr noundef %67, ptr noundef %68, i32 noundef %71)
  %73 = load ptr, ptr @test_key_update.mess, align 8, !tbaa !11
  %74 = call i64 @strlen(ptr noundef %73) #10
  %75 = trunc i64 %74 to i32
  %76 = call i32 @test_int_eq(ptr noundef @.str.14, i32 noundef 6854, ptr noundef @.str.710, ptr noundef @.str.711, i32 noundef %72, i32 noundef %75)
  %77 = icmp ne i32 %76, 0
  br i1 %77, label %78, label %87

78:                                               ; preds = %66
  %79 = load ptr, ptr %4, align 8, !tbaa !21
  %80 = getelementptr inbounds [20 x i8], ptr %8, i64 0, i64 0
  %81 = call i32 @SSL_read(ptr noundef %79, ptr noundef %80, i32 noundef 20)
  %82 = load ptr, ptr @test_key_update.mess, align 8, !tbaa !11
  %83 = call i64 @strlen(ptr noundef %82) #10
  %84 = trunc i64 %83 to i32
  %85 = call i32 @test_int_eq(ptr noundef @.str.14, i32 noundef 6856, ptr noundef @.str.712, ptr noundef @.str.711, i32 noundef %81, i32 noundef %84)
  %86 = icmp ne i32 %85, 0
  br i1 %86, label %88, label %87

87:                                               ; preds = %78, %66
  br label %115

88:                                               ; preds = %78
  %89 = load ptr, ptr %4, align 8, !tbaa !21
  %90 = load ptr, ptr @test_key_update.mess, align 8, !tbaa !11
  %91 = load ptr, ptr @test_key_update.mess, align 8, !tbaa !11
  %92 = call i64 @strlen(ptr noundef %91) #10
  %93 = trunc i64 %92 to i32
  %94 = call i32 @SSL_write(ptr noundef %89, ptr noundef %90, i32 noundef %93)
  %95 = load ptr, ptr @test_key_update.mess, align 8, !tbaa !11
  %96 = call i64 @strlen(ptr noundef %95) #10
  %97 = trunc i64 %96 to i32
  %98 = call i32 @test_int_eq(ptr noundef @.str.14, i32 noundef 6859, ptr noundef @.str.713, ptr noundef @.str.711, i32 noundef %94, i32 noundef %97)
  %99 = icmp ne i32 %98, 0
  br i1 %99, label %100, label %109

100:                                              ; preds = %88
  %101 = load ptr, ptr %3, align 8, !tbaa !21
  %102 = getelementptr inbounds [20 x i8], ptr %8, i64 0, i64 0
  %103 = call i32 @SSL_read(ptr noundef %101, ptr noundef %102, i32 noundef 20)
  %104 = load ptr, ptr @test_key_update.mess, align 8, !tbaa !11
  %105 = call i64 @strlen(ptr noundef %104) #10
  %106 = trunc i64 %105 to i32
  %107 = call i32 @test_int_eq(ptr noundef @.str.14, i32 noundef 6861, ptr noundef @.str.714, ptr noundef @.str.711, i32 noundef %103, i32 noundef %106)
  %108 = icmp ne i32 %107, 0
  br i1 %108, label %110, label %109

109:                                              ; preds = %100, %88
  br label %115

110:                                              ; preds = %100
  br label %111

111:                                              ; preds = %110
  %112 = load i32, ptr %7, align 4, !tbaa !13
  %113 = add nsw i32 %112, 1
  store i32 %113, ptr %7, align 4, !tbaa !13
  br label %37, !llvm.loop !82

114:                                              ; preds = %37
  store i32 1, ptr %5, align 4, !tbaa !13
  br label %115

115:                                              ; preds = %114, %109, %87, %61, %35
  %116 = load ptr, ptr %4, align 8, !tbaa !21
  call void @SSL_free(ptr noundef %116)
  %117 = load ptr, ptr %3, align 8, !tbaa !21
  call void @SSL_free(ptr noundef %117)
  %118 = load ptr, ptr %2, align 8, !tbaa !19
  call void @SSL_CTX_free(ptr noundef %118)
  %119 = load ptr, ptr %1, align 8, !tbaa !19
  call void @SSL_CTX_free(ptr noundef %119)
  %120 = load i32, ptr %5, align 4, !tbaa !13
  call void @llvm.lifetime.end.p0(i64 20, ptr %8) #9
  call void @llvm.lifetime.end.p0(i64 4, ptr %7) #9
  call void @llvm.lifetime.end.p0(i64 4, ptr %6) #9
  call void @llvm.lifetime.end.p0(i64 4, ptr %5) #9
  call void @llvm.lifetime.end.p0(i64 8, ptr %4) #9
  call void @llvm.lifetime.end.p0(i64 8, ptr %3) #9
  call void @llvm.lifetime.end.p0(i64 8, ptr %2) #9
  call void @llvm.lifetime.end.p0(i64 8, ptr %1) #9
  ret i32 %120
}