; Function Attrs: nounwind uwtable
define internal range(i32 0, 2) i32 @test_key_update() #1 {
  %1 = alloca ptr, align 8
  %2 = alloca ptr, align 8
  %3 = alloca ptr, align 8
  %4 = alloca ptr, align 8
  %5 = alloca [20 x i8], align 16
  call void @llvm.lifetime.start.p0(i64 8, ptr nonnull %1) #24
  store ptr null, ptr %1, align 8, !tbaa !19
  call void @llvm.lifetime.start.p0(i64 8, ptr nonnull %2) #24
  store ptr null, ptr %2, align 8, !tbaa !19
  call void @llvm.lifetime.start.p0(i64 8, ptr nonnull %3) #24
  store ptr null, ptr %3, align 8, !tbaa !21
  call void @llvm.lifetime.start.p0(i64 8, ptr nonnull %4) #24
  store ptr null, ptr %4, align 8, !tbaa !21
  call void @llvm.lifetime.start.p0(i64 20, ptr nonnull %5) #24
  %6 = load ptr, ptr @libctx, align 8, !tbaa !4
  %7 = tail call ptr @TLS_server_method() #24
  %8 = tail call ptr @TLS_client_method() #24
  %9 = load ptr, ptr @cert, align 8, !tbaa !11
  %10 = load ptr, ptr @privkey, align 8, !tbaa !11
  %11 = call i32 @create_ssl_ctx_pair(ptr noundef %6, ptr noundef %7, ptr noundef %8, i32 noundef 772, i32 noundef 0, ptr noundef nonnull %2, ptr noundef nonnull %1, ptr noundef %9, ptr noundef %10) #24
  %12 = icmp ne i32 %11, 0
  %13 = zext i1 %12 to i32
  %14 = call i32 @test_true(ptr noundef nonnull @.str.14, i32 noundef 6835, ptr noundef nonnull @.str.610, i32 noundef %13) #24
  %.not = icmp eq i32 %14, 0
  br i1 %.not, label %.loopexit, label %15

15:                                               ; preds = %0
  %16 = load ptr, ptr %2, align 8, !tbaa !19
  %17 = load ptr, ptr %1, align 8, !tbaa !19
  %18 = call i32 @create_ssl_objects(ptr noundef %16, ptr noundef %17, ptr noundef nonnull %4, ptr noundef nonnull %3, ptr noundef null, ptr noundef null) #24
  %19 = icmp ne i32 %18, 0
  %20 = zext i1 %19 to i32
  %21 = call i32 @test_true(ptr noundef nonnull @.str.14, i32 noundef 6837, ptr noundef nonnull @.str.157, i32 noundef %20) #24
  %.not8 = icmp eq i32 %21, 0
  br i1 %.not8, label %.loopexit, label %22

22:                                               ; preds = %15
  %23 = load ptr, ptr %4, align 8, !tbaa !21
  %24 = load ptr, ptr %3, align 8, !tbaa !21
  %25 = call i32 @create_ssl_connection(ptr noundef %23, ptr noundef %24, i32 noundef 0) #24
  %26 = icmp ne i32 %25, 0
  %27 = zext i1 %26 to i32
  %28 = call i32 @test_true(ptr noundef nonnull @.str.14, i32 noundef 6839, ptr noundef nonnull @.str.158, i32 noundef %27) #24
  %.not9 = icmp eq i32 %28, 0
  br i1 %.not9, label %.loopexit, label %.preheader

.preheader:                                       ; preds = %22, %55
  %.not23 = phi i1 [ true, %55 ], [ false, %22 ]
  %.019 = phi i32 [ 1, %55 ], [ 0, %22 ]
  br label %31

29:                                               ; preds = %37
  %30 = add nuw nsw i32 %.0618, 1
  %exitcond.not = icmp eq i32 %30, 40
  br i1 %exitcond.not, label %43, label %31, !llvm.loop !68

31:                                               ; preds = %.preheader, %29
  %.0618 = phi i32 [ 0, %.preheader ], [ %30, %29 ]
  %32 = load ptr, ptr %3, align 8, !tbaa !21
  %33 = call i32 @SSL_key_update(ptr noundef %32, i32 noundef %.019) #24
  %34 = icmp ne i32 %33, 0
  %35 = zext i1 %34 to i32
  %36 = call i32 @test_true(ptr noundef nonnull @.str.14, i32 noundef 6848, ptr noundef nonnull @.str.708, i32 noundef %35) #24
  %.not14 = icmp eq i32 %36, 0
  br i1 %.not14, label %.loopexit, label %37

37:                                               ; preds = %31
  %38 = load ptr, ptr %3, align 8, !tbaa !21
  %39 = call i32 @SSL_do_handshake(ptr noundef %38) #24
  %40 = icmp ne i32 %39, 0
  %41 = zext i1 %40 to i32
  %42 = call i32 @test_true(ptr noundef nonnull @.str.14, i32 noundef 6849, ptr noundef nonnull @.str.709, i32 noundef %41) #24
  %.not15 = icmp eq i32 %42, 0
  br i1 %.not15, label %.loopexit, label %29

43:                                               ; preds = %29
  %44 = load ptr, ptr %3, align 8, !tbaa !21
  %45 = call i32 @SSL_write(ptr noundef %44, ptr noundef nonnull @__const.test_shutdown.msg, i32 noundef 14) #24
  %46 = call i32 @test_int_eq(ptr noundef nonnull @.str.14, i32 noundef 6854, ptr noundef nonnull @.str.710, ptr noundef nonnull @.str.711, i32 noundef %45, i32 noundef 14) #24
  %.not10 = icmp eq i32 %46, 0
  br i1 %.not10, label %.loopexit, label %47

47:                                               ; preds = %43
  %48 = load ptr, ptr %4, align 8, !tbaa !21
  %49 = call i32 @SSL_read(ptr noundef %48, ptr noundef nonnull %5, i32 noundef 20) #24
  %50 = call i32 @test_int_eq(ptr noundef nonnull @.str.14, i32 noundef 6856, ptr noundef nonnull @.str.712, ptr noundef nonnull @.str.711, i32 noundef %49, i32 noundef 14) #24
  %.not11 = icmp eq i32 %50, 0
  br i1 %.not11, label %.loopexit, label %51

51:                                               ; preds = %47
  %52 = load ptr, ptr %4, align 8, !tbaa !21
  %53 = call i32 @SSL_write(ptr noundef %52, ptr noundef nonnull @__const.test_shutdown.msg, i32 noundef 14) #24
  %54 = call i32 @test_int_eq(ptr noundef nonnull @.str.14, i32 noundef 6859, ptr noundef nonnull @.str.713, ptr noundef nonnull @.str.711, i32 noundef %53, i32 noundef 14) #24
  %.not12 = icmp eq i32 %54, 0
  br i1 %.not12, label %.loopexit, label %55

55:                                               ; preds = %51
  %56 = load ptr, ptr %3, align 8, !tbaa !21
  %57 = call i32 @SSL_read(ptr noundef %56, ptr noundef nonnull %5, i32 noundef 20) #24
  %58 = call i32 @test_int_eq(ptr noundef nonnull @.str.14, i32 noundef 6861, ptr noundef nonnull @.str.714, ptr noundef nonnull @.str.711, i32 noundef %57, i32 noundef 14) #24
  %.not13 = icmp eq i32 %58, 0
  %brmerge = or i1 %.not13, %.not23
  br i1 %brmerge, label %.loopexit.loopexit24.split.loop.exit, label %.preheader

.loopexit.loopexit24.split.loop.exit:             ; preds = %55
  %not..not13.le = xor i1 %.not13, true
  %.mux.le = zext i1 %not..not13.le to i32
  br label %.loopexit

.loopexit:                                        ; preds = %.loopexit.loopexit24.split.loop.exit, %47, %43, %51, %31, %37, %0, %15, %22
  %.07 = phi i32 [ 0, %22 ], [ 0, %15 ], [ 0, %0 ], [ 0, %37 ], [ 0, %31 ], [ %.mux.le, %.loopexit.loopexit24.split.loop.exit ], [ 0, %47 ], [ 0, %43 ], [ 0, %51 ]
  %59 = load ptr, ptr %4, align 8, !tbaa !21
  call void @SSL_free(ptr noundef %59) #24
  %60 = load ptr, ptr %3, align 8, !tbaa !21
  call void @SSL_free(ptr noundef %60) #24
  %61 = load ptr, ptr %2, align 8, !tbaa !19
  call void @SSL_CTX_free(ptr noundef %61) #24
  %62 = load ptr, ptr %1, align 8, !tbaa !19
  call void @SSL_CTX_free(ptr noundef %62) #24
  call void @llvm.lifetime.end.p0(i64 20, ptr nonnull %5) #24
  call void @llvm.lifetime.end.p0(i64 8, ptr nonnull %4) #24
  call void @llvm.lifetime.end.p0(i64 8, ptr nonnull %3) #24
  call void @llvm.lifetime.end.p0(i64 8, ptr nonnull %2) #24
  call void @llvm.lifetime.end.p0(i64 8, ptr nonnull %1) #24
  ret i32 %.07
}